; Function Attrs: nounwind sspstrong uwtable
define dso_local void @qemu_input_queue_mtt_abs(ptr noundef %src, i32 noundef %axis, i32 noundef %value, i32 noundef %min_in, i32 noundef %max_in, i32 noundef %slot, i32 noundef %tracking_id) local_unnamed_addr #0 {
entry:
  %mtt = alloca %struct.InputMultiTouchEvent, align 8
  %evt = alloca %struct.InputEvent, align 8
  store i32 4, ptr %mtt, align 8
  %slot1 = getelementptr inbounds nuw i8, ptr %mtt, i64 8
  %conv = sext i32 %slot to i64
  store i64 %conv, ptr %slot1, align 8
  %tracking_id2 = getelementptr inbounds nuw i8, ptr %mtt, i64 16
  %conv3 = sext i32 %tracking_id to i64
  store i64 %conv3, ptr %tracking_id2, align 8
  %axis4 = getelementptr inbounds nuw i8, ptr %mtt, i64 24
  store i32 %axis, ptr %axis4, align 8
  %value5 = getelementptr inbounds nuw i8, ptr %mtt, i64 32
  %conv.i = sext i32 %max_in to i64
  %conv1.i = sext i32 %min_in to i64
  %sub.i = sub nsw i64 %conv.i, %conv1.i
  %cmp.i = icmp slt i64 %sub.i, 1
  br i1 %cmp.i, label %if.end18.i, label %if.end.i

if.end.i:                                         ; preds = %entry
  %conv8.i = sext i32 %value to i64
  %sub10.i = sub nsw i64 %conv8.i, %conv1.i
  %mul.i = mul nsw i64 %sub10.i, 32767
  %div11.i = sdiv i64 %mul.i, %sub.i
  %sext = shl i64 %div11.i, 32
  %0 = ashr exact i64 %sext, 32
  br label %if.end18.i

if.end18.i:                                       ; preds = %if.end.i, %entry
  %.pn.in.i = phi i64 [ %0, %if.end.i ], [ 16383, %entry ]
  store i64 %.pn.in.i, ptr %value5, align 8
  store i32 4, ptr %evt, align 8
  %u = getelementptr inbounds nuw i8, ptr %evt, i64 8
  store ptr %mtt, ptr %u, align 8
  %call.i = call zeroext i1 @runstate_is_running() #12
  br i1 %call.i, label %if.end22.i, label %land.lhs.true19.i

land.lhs.true19.i:                                ; preds = %if.end18.i
  %call20.i = call zeroext i1 @runstate_check(i32 noundef 12) #12
  br i1 %call20.i, label %if.end22.i, label %qemu_input_event_send.exit

if.end22.i:                                       ; preds = %land.lhs.true19.i, %if.end18.i
  call void @replay_input_event(ptr noundef %src, ptr noundef nonnull %evt) #12
  br label %qemu_input_event_send.exit

qemu_input_event_send.exit:                       ; preds = %land.lhs.true19.i, %if.end22.i
  ret void
}